; Function Attrs: mustprogress uwtable
define hidden noundef i32 @_ZN6cvtest10randomTypeERN2cv3RNGENS0_12_OutputArray9DepthMaskEii(ptr nocapture noundef nonnull align 8 dereferenceable(8) %0, i32 noundef %1, i32 noundef %2, i32 noundef %3) local_unnamed_addr #6 personality ptr @__gxx_personality_v0 {
  %5 = alloca %"class.std::__cxx11::basic_string", align 8
  %6 = alloca %"class.std::allocator", align 1
  %7 = add nsw i32 %3, 1
  %8 = icmp eq i32 %7, %2
  br i1 %8, label %_ZN2cv3RNG7uniformEii.exit, label %9

9:                                                ; preds = %4
  %10 = load i64, ptr %0, align 8
  %11 = and i64 %10, 4294967295
  %12 = mul nuw i64 %11, 4164903690
  %13 = lshr i64 %10, 32
  %14 = add nuw i64 %12, %13
  store i64 %14, ptr %0, align 8
  %15 = trunc i64 %14 to i32
  %16 = sub nsw i32 %7, %2
  %17 = urem i32 %15, %16
  %18 = add i32 %17, %2
  br label %_ZN2cv3RNG7uniformEii.exit

_ZN2cv3RNG7uniformEii.exit:                       ; preds = %4, %9
  %19 = phi i32 [ %18, %9 ], [ %2, %4 ]
  %20 = and i32 %1, 255
  %.not = icmp eq i32 %20, 0
  br i1 %.not, label %21, label %.preheader

.preheader:                                       ; preds = %_ZN2cv3RNG7uniformEii.exit
  %.promoted = load i64, ptr %0, align 8
  br label %29

21:                                               ; preds = %_ZN2cv3RNG7uniformEii.exit
  call void @_ZNSaIcEC1Ev(ptr noundef nonnull align 1 dereferenceable(1) %6) #28
  invoke void @_ZNSt7__cxx1112basic_stringIcSt11char_traitsIcESaIcEEC1EPKcRKS3_(ptr noundef nonnull align 8 dereferenceable(32) %5, ptr noundef nonnull @.str.30, ptr noundef nonnull align 1 dereferenceable(1) %6)
          to label %22 unwind label %24

22:                                               ; preds = %21
  invoke void @_ZN2cv5errorEiRKNSt7__cxx1112basic_stringIcSt11char_traitsIcESaIcEEEPKcS9_i(i32 noundef -215, ptr noundef nonnull align 8 dereferenceable(32) %5, ptr noundef nonnull @__func__._ZN6cvtest10randomTypeERN2cv3RNGENS0_12_OutputArray9DepthMaskEii, ptr noundef nonnull @.str.31, i32 noundef 75) #29
          to label %23 unwind label %26

23:                                               ; preds = %22
  unreachable

24:                                               ; preds = %21
  %25 = landingpad { ptr, i32 }
          cleanup
  br label %28

26:                                               ; preds = %22
  %27 = landingpad { ptr, i32 }
          cleanup
  call void @_ZNSt7__cxx1112basic_stringIcSt11char_traitsIcESaIcEED1Ev(ptr noundef nonnull align 8 dereferenceable(32) %5) #28
  br label %28

28:                                               ; preds = %26, %24
  %.pn = phi { ptr, i32 } [ %27, %26 ], [ %25, %24 ]
  call void @_ZNSaIcED1Ev(ptr noundef nonnull align 1 dereferenceable(1) %6) #28
  resume { ptr, i32 } %.pn

29:                                               ; preds = %.preheader, %29
  %30 = phi i64 [ %.promoted, %.preheader ], [ %34, %29 ]
  %31 = and i64 %30, 4294967295
  %32 = mul nuw i64 %31, 4164903690
  %33 = lshr i64 %30, 32
  %34 = add nuw i64 %32, %33
  %35 = trunc i64 %34 to i32
  %36 = and i32 %35, 7
  %37 = shl nuw nsw i32 1, %36
  %38 = and i32 %37, %1
  %.not12 = icmp eq i32 %38, 0
  br i1 %.not12, label %29, label %39, !llvm.loop !9

39:                                               ; preds = %29
  store i64 %34, ptr %0, align 8
  %40 = shl i32 %19, 3
  %41 = add i32 %40, -8
  %42 = or disjoint i32 %36, %41
  ret i32 %42
}